target datalayout = "e-m:e-p270:32:32-p271:32:32-p272:64:64-i64:64-i128:128-f80:128-n8:16:32:64-S128"
target triple = "x86_64-unknown-linux-gnu"

%struct.HashMap = type { ptr, i32, i32 }
%struct.Scope = type { ptr, %struct.HashMap, %struct.HashMap }
%struct.Token = type { i32, ptr, i64, x86_fp80, ptr, i32, ptr, ptr, ptr, ptr, i32, i32, i8, i8, ptr, ptr }
%struct.VarScope = type { ptr, ptr, ptr, i32 }

@scope = internal global ptr @.compoundliteral, align 8

; Function Attrs: nounwind uwtable
define internal ptr @find_var(ptr noundef %tok) #0 {
entry:
  %retval = alloca ptr, align 8
  %tok.addr = alloca ptr, align 8
  %sc = alloca ptr, align 8
  %sc2 = alloca ptr, align 8
  store ptr %tok, ptr %tok.addr, align 8
  %0 = load ptr, ptr @scope, align 8
  store ptr %0, ptr %sc, align 8
  br label %for.cond

for.cond:                                         ; preds = %for.inc, %entry
  %1 = load ptr, ptr %sc, align 8
  %tobool = icmp ne ptr %1, null
  br i1 %tobool, label %for.body, label %for.end

for.body:                                         ; preds = %for.cond
  %2 = load ptr, ptr %sc, align 8
  %vars = getelementptr inbounds %struct.Scope, ptr %2, i32 0, i32 1
  %3 = load ptr, ptr %tok.addr, align 8
  %loc = getelementptr inbounds %struct.Token, ptr %3, i32 0, i32 4
  %4 = load ptr, ptr %loc, align 16
  %5 = load ptr, ptr %tok.addr, align 8
  %len = getelementptr inbounds %struct.Token, ptr %5, i32 0, i32 5
  %6 = load i32, ptr %len, align 8
  %call = call ptr @hashmap_get2(ptr noundef %vars, ptr noundef %4, i32 noundef %6)
  store ptr %call, ptr %sc2, align 8
  %7 = load ptr, ptr %sc2, align 8
  %tobool1 = icmp ne ptr %7, null
  br i1 %tobool1, label %if.then, label %if.end

if.then:                                          ; preds = %for.body
  %8 = load ptr, ptr %sc2, align 8
  store ptr %8, ptr %retval, align 8
  br label %return

if.end:                                           ; preds = %for.body
  br label %for.inc

for.inc:                                          ; preds = %if.end
  %9 = load ptr, ptr %sc, align 8
  %next = getelementptr inbounds %struct.Scope, ptr %9, i32 0, i32 0
  %10 = load ptr, ptr %next, align 8
  store ptr %10, ptr %sc, align 8
  br label %for.cond, !llvm.loop !22

for.end:                                          ; preds = %for.cond
  store ptr null, ptr %retval, align 8
  br label %return

return:                                           ; preds = %for.end, %if.then
  %11 = load ptr, ptr %retval, align 8
  ret ptr %11
}

; Function Attrs: nounwind uwtable
define internal ptr @find_typedef(ptr noundef %tok) #0 {
entry:
  %retval = alloca ptr, align 8
  %tok.addr = alloca ptr, align 8
  %sc = alloca ptr, align 8
  store ptr %tok, ptr %tok.addr, align 8
  %0 = load ptr, ptr %tok.addr, align 8
  %kind = getelementptr inbounds %struct.Token, ptr %0, i32 0, i32 0
  %1 = load i32, ptr %kind, align 16
  %cmp = icmp eq i32 %1, 0
  br i1 %cmp, label %if.then, label %if.end2

if.then:                                          ; preds = %entry
  %2 = load ptr, ptr %tok.addr, align 8
  %call = call ptr @find_var(ptr noundef %2)
  store ptr %call, ptr %sc, align 8
  %3 = load ptr, ptr %sc, align 8
  %tobool = icmp ne ptr %3, null
  br i1 %tobool, label %if.then1, label %if.end

if.then1:                                         ; preds = %if.then
  %4 = load ptr, ptr %sc, align 8
  %type_def = getelementptr inbounds %struct.VarScope, ptr %4, i32 0, i32 1
  %5 = load ptr, ptr %type_def, align 8
  store ptr %5, ptr %retval, align 8
  br label %return

if.end:                                           ; preds = %if.then
  br label %if.end2

if.end2:                                          ; preds = %if.end, %entry
  store ptr null, ptr %retval, align 8
  br label %return

return:                                           ; preds = %if.end2, %if.then1
  %6 = load ptr, ptr %retval, align 8
  ret ptr %6
}