; Function Attrs: nounwind uwtable
define internal fastcc ptr @find_typedef(ptr nocapture noundef readonly %tok) unnamed_addr #0 {
entry:
  %0 = load i32, ptr %tok, align 16
  %cmp = icmp eq i32 %0, 0
  br i1 %cmp, label %if.then, label %return

if.then:                                          ; preds = %entry
  %loc.i = getelementptr inbounds %struct.Token, ptr %tok, i64 0, i32 4
  %len.i = getelementptr inbounds %struct.Token, ptr %tok, i64 0, i32 5
  br label %for.cond.i

for.cond.i:                                       ; preds = %for.body.i, %if.then
  %sc.0.in.i = phi ptr [ @scope, %if.then ], [ %sc.0.i, %for.body.i ]
  %sc.0.i = load ptr, ptr %sc.0.in.i, align 8
  %tobool.not.i = icmp eq ptr %sc.0.i, null
  br i1 %tobool.not.i, label %return, label %for.body.i

for.body.i:                                       ; preds = %for.cond.i
  %vars.i = getelementptr inbounds %struct.Scope, ptr %sc.0.i, i64 0, i32 1
  %1 = load ptr, ptr %loc.i, align 16
  %2 = load i32, ptr %len.i, align 8
  %call.i = tail call ptr @hashmap_get2(ptr noundef nonnull %vars.i, ptr noundef %1, i32 noundef %2) #13
  %tobool1.not.i = icmp eq ptr %call.i, null
  br i1 %tobool1.not.i, label %for.cond.i, label %if.then1, !llvm.loop !14

if.then1:                                         ; preds = %for.body.i
  %type_def = getelementptr inbounds %struct.VarScope, ptr %call.i, i64 0, i32 1
  %3 = load ptr, ptr %type_def, align 8
  br label %return

return:                                           ; preds = %for.cond.i, %entry, %if.then1
  %retval.0 = phi ptr [ %3, %if.then1 ], [ null, %entry ], [ null, %for.cond.i ]
  ret ptr %retval.0
}